Certificate:
    Data:
        Version: 3 (0x2)
        Serial Number: 4096 (0x1000)
    Signature Algorithm: sha256WithRSAEncryption
        Issuer: C=SW, ST=Stockholm, L=kista, O=KTH, OU=ICT, CN=TP CA yfan@kth.se lidal@kth.se/emailAddress=yfan@kth.se
        Validity
            Not Before: Dec 19 09:49:10 2017 GMT
            Not After : Dec 19 09:49:10 2018 GMT
        Subject: C=SW, ST=Stockholm, O=KTH, OU=ICT, CN=TP Client yfan@kth.se lidal@kth.se/emailAddress=yfan@kth.se
        Subject Public Key Info:
            Public Key Algorithm: rsaEncryption
                Public-Key: (1024 bit)
                Modulus:
                    00:da:f4:26:4b:27:73:72:7d:aa:61:75:18:30:e4:
                    be:b6:81:66:53:8c:9b:01:87:ac:c0:95:0d:1e:8b:
                    70:b7:9f:5e:05:7b:47:87:9b:d4:93:08:0a:c4:d3:
                    19:95:46:d5:c6:6b:00:15:2f:0f:04:71:00:a1:de:
                    e4:45:20:40:1c:2a:5d:a7:9f:fd:d5:ed:ce:41:bd:
                    27:5f:e0:87:9a:44:6a:b3:f0:96:9d:9e:d4:16:60:
                    74:01:c1:f1:a7:35:17:ae:65:1d:ef:a1:cc:2f:65:
                    78:34:71:a4:00:79:a1:18:10:fb:03:32:7f:17:d4:
                    a7:e0:8e:07:bb:d7:76:d9:39
                Exponent: 65537 (0x10001)
        X509v3 extensions:
            X509v3 Basic Constraints: 
                CA:FALSE
            X509v3 Key Usage: 
                Digital Signature, Non Repudiation, Key Encipherment
            Netscape Comment: 
                OpenSSL Generated Certificate
            X509v3 Subject Key Identifier: 
                7C:9D:FB:6F:B3:61:14:6F:3C:A1:60:C3:8C:4C:83:57:E7:A5:47:E1
            X509v3 Authority Key Identifier: 
                DirName:/C=SW/ST=Stockholm/L=kista/O=KTH/OU=ICT/CN=TP CA yfan@kth.se lidal@kth.se/emailAddress=yfan@kth.se
                serial:B8:B5:23:D9:55:2B:2E:36

    Signature Algorithm: sha256WithRSAEncryption
         5e:bf:48:bd:d0:bb:c7:d6:ad:8c:4f:6a:44:fc:6e:1c:4d:d4:
         dc:d5:0a:16:3e:9f:19:7f:a6:5e:73:33:e2:34:d0:28:4f:e8:
         80:5b:0f:cd:87:4a:fc:f1:d5:88:57:b5:f7:dd:5e:8a:2d:fa:
         cb:c6:d8:e8:01:51:8b:f4:64:6f:e3:ae:99:58:66:90:a1:ac:
         e1:a5:f8:36:e3:f1:30:01:97:90:19:75:b2:fb:87:c3:2c:be:
         17:c2:2b:e1:52:6e:f4:4c:68:a4:f2:5d:1e:ef:92:40:a7:ee:
         9e:6b:2d:91:8e:3c:07:71:c8:eb:c6:be:6a:fc:47:2c:ca:d8:
         73:ee:23:84:f0:bf:93:66:cd:af:68:15:48:95:47:7b:73:1b:
         89:7f:96:67:ef:ca:5c:a8:63:67:21:95:c0:b1:ad:87:37:23:
         d7:46:ee:3c:8a:b0:22:47:da:bb:43:c1:06:49:29:a1:5c:07:
         3a:5c:e7:3b:7c:34:55:27:be:88:41:d2:a7:b3:ea:4b:24:3d:
         2a:eb:0d:47:69:31:9f:27:ca:44:d6:5d:7a:69:1b:a3:20:64:
         03:b1:9d:ec:d6:49:cd:ee:37:21:83:aa:51:c9:84:f5:f6:2f:
         cb:22:a9:b7:fd:91:c2:b3:55:9f:31:3d:c7:02:1e:bd:d4:de:
         3b:9f:c1:e2
-----BEGIN CERTIFICATE-----
MIIEMTCCAxmgAwIBAgICEAAwDQYJKoZIhvcNAQELBQAwgZIxCzAJBgNVBAYTAlNX
MRIwEAYDVQQIDAlTdG9ja2hvbG0xDjAMBgNVBAcMBWtpc3RhMQwwCgYDVQQKDANL
VEgxDDAKBgNVBAsMA0lDVDEnMCUGA1UEAwweVFAgQ0EgeWZhbkBrdGguc2UgbGlk
YWxAa3RoLnNlMRowGAYJKoZIhvcNAQkBFgt5ZmFuQGt0aC5zZTAeFw0xNzEyMTkw
OTQ5MTBaFw0xODEyMTkwOTQ5MTBaMIGGMQswCQYDVQQGEwJTVzESMBAGA1UECAwJ
U3RvY2tob2xtMQwwCgYDVQQKDANLVEgxDDAKBgNVBAsMA0lDVDErMCkGA1UEAwwi
VFAgQ2xpZW50IHlmYW5Aa3RoLnNlIGxpZGFsQGt0aC5zZTEaMBgGCSqGSIb3DQEJ
ARYLeWZhbkBrdGguc2UwgZ8wDQYJKoZIhvcNAQEBBQADgY0AMIGJAoGBANr0Jksn
c3J9qmF1GDDkvraBZlOMmwGHrMCVDR6LcLefXgV7R4eb1JMICsTTGZVG1cZrABUv
DwRxAKHe5EUgQBwqXaef/dXtzkG9J1/gh5pEarPwlp2e1BZgdAHB8ac1F65lHe+h
zC9leDRxpAB5oRgQ+wMyfxfUp+COB7vXdtk5AgMBAAGjggEdMIIBGTAJBgNVHRME
AjAAMAsGA1UdDwQEAwIF4DAsBglghkgBhvhCAQ0EHxYdT3BlblNTTCBHZW5lcmF0
ZWQgQ2VydGlmaWNhdGUwHQYDVR0OBBYEFHyd+2+zYRRvPKFgw4xMg1fnpUfhMIGx
BgNVHSMEgakwgaahgZikgZUwgZIxCzAJBgNVBAYTAlNXMRIwEAYDVQQIDAlTdG9j
a2hvbG0xDjAMBgNVBAcMBWtpc3RhMQwwCgYDVQQKDANLVEgxDDAKBgNVBAsMA0lD
VDEnMCUGA1UEAwweVFAgQ0EgeWZhbkBrdGguc2UgbGlkYWxAa3RoLnNlMRowGAYJ
KoZIhvcNAQkBFgt5ZmFuQGt0aC5zZYIJALi1I9lVKy42MA0GCSqGSIb3DQEBCwUA
A4IBAQBev0i90LvH1q2MT2pE/G4cTdTc1QoWPp8Zf6ZeczPiNNAoT+iAWw/Nh0r8
8dWIV7X33V6KLfrLxtjoAVGL9GRv466ZWGaQoazhpfg24/EwAZeQGXWy+4fDLL4X
wivhUm70TGik8l0e75JAp+6eay2RjjwHccjrxr5q/Ecsythz7iOE8L+TZs2vaBVI
lUd7cxuJf5Zn78pcqGNnIZXAsa2HNyPXRu48irAiR9q7Q8EGSSmhXAc6XOc7fDRV
J76IQdKns+pLJD0q6w1HaTGfJ8pE1l16aRujIGQDsZ3s1knN7jchg6pRyYT19i/L
Iqm3/ZHCs1WfMT3HAh691N47n8Hi
-----END CERTIFICATE-----
-----BEGIN RSA PRIVATE KEY-----
Proc-Type: 4,ENCRYPTED
DEK-Info: DES-EDE3-CBC,F273913A59ED47FC

gU9twuPTGvPpL+ApqRaSFuhAfIH2leepwVFYGUd+Eyx6yx5bJi2gxIsp4faWZj1e
Ul169G7hVkO2NAjZrT+rGpmcQL3PkiyB+GqDACnO51ozENWxuDGsUiDVl/yx1nTB
4O25a4XI7VKI4qN8oNxO8EYvg9Af5BXFOYAYfCzxsPoZLZrMMtnJoRPr9Vl6/+du
TyoHQhKc2RfdXyt9OaM9mVeu5LXp5MIvti9pDRXkrNicNinKom6E7AXHGrLIS2gq
H/u7op/elRsf5l8xR8xSsJ9Sym6C2zN0US4F9czpLBNIGn/AJE2CYqLGAhRNk5rv
2XwZl3Nj+3j/o5FIxfI9JUqSRBJLVXHJscs/FU703HvXOFlewz6WgRjFvB5GEt16
4CQ/7BgAmXGo7J/MUiEjtq2HbxESsRqw3HQ3PmUViGUo40KYA2G2d3JEeBw2YbOo
gee0tbJwiUYaGdqL3TRMp6uin4wHqjPY80gGRX78a2QV0TVc/ERUyEnvaTjcEuQZ
aSf4LtAY04mW9viUlez3g83JZdHKqnWs2A8OqVWReSj/4k+tg5iUELcuiZiKwfSi
gRicvCIWBMWNPc42QV+K1iN8Fq9fAZuXzFpK/bjfyryLGicyW43P0ZZHswLjkrMR
lOFyhohjHDDFMglAoZHoX5M2A/NDcaF0Q+un4G9U9fY3nNl44M9E9ZX67Fom+wE/
Mb1gCH943h9oYwKo05JEAnOzvaFRymTuEfBBBh1FZlY7CklTgOdRq/3GnUFczOb4
c/uyCBCFYTOurTp2EeEKGN2g+J7dea6hx3A9+nqsi7O/71pli2Yhbg==
-----END RSA PRIVATE KEY-----
