Certificate:
    Data:
        Version: 3 (0x2)
        Serial Number: 4100 (0x1004)
    Signature Algorithm: sha256WithRSAEncryption
        Issuer: C=SW, ST=Stockholm, L=kista, O=kth, OU=ict, CN=TP CA yfan@kth.se lidal@kth.se/emailAddress=yfan@kth.se
        Validity
            Not Before: Jan  6 15:44:23 2018 GMT
            Not After : Jan  6 15:44:23 2019 GMT
        Subject: C=SW, ST=Stockholm, O=kth, OU=ict, CN=TP Client yfan@kth.se lidal@kth.se/emailAddress=yfan@kth.se
        Subject Public Key Info:
            Public Key Algorithm: rsaEncryption
                Public-Key: (1024 bit)
                Modulus:
                    00:bb:20:c2:11:fb:f4:d4:f4:ef:80:d3:c2:e0:08:
                    96:61:bf:65:2e:ec:11:b2:44:ba:50:81:08:86:33:
                    c6:2e:ba:c4:72:de:48:99:09:3d:fe:cf:75:74:33:
                    f5:ca:5e:78:eb:d9:23:56:88:40:20:66:82:7e:b2:
                    37:5c:84:99:1f:76:1c:d6:7e:04:c5:73:83:b6:df:
                    7a:77:b5:86:ff:1c:9d:9e:fb:72:17:a4:fe:77:90:
                    93:e4:3b:4f:9c:23:f5:58:9e:d2:40:fd:50:94:01:
                    f5:6f:83:bd:5b:2e:c4:53:02:7f:0f:74:14:00:69:
                    d1:b7:34:ef:f1:02:a5:ad:ff
                Exponent: 65537 (0x10001)
        X509v3 extensions:
            X509v3 Basic Constraints: 
                CA:FALSE
            X509v3 Key Usage: 
                Digital Signature, Non Repudiation, Key Encipherment
            Netscape Comment: 
                OpenSSL Generated Certificate
            X509v3 Subject Key Identifier: 
                8E:89:1C:95:1E:72:52:E3:60:4D:B7:EE:75:19:52:02:1B:63:3A:0D
            X509v3 Authority Key Identifier: 
                keyid:69:E0:78:DD:DC:E1:EB:33:39:E3:AC:D0:99:73:BE:AA:9B:95:A3:01

    Signature Algorithm: sha256WithRSAEncryption
         8f:32:6d:63:a7:09:9e:d5:c5:8d:29:60:c6:5a:cc:21:6b:89:
         40:63:74:23:9c:a4:01:50:23:37:3d:b8:35:c6:1e:40:15:fd:
         e2:71:a3:3e:05:f3:87:ff:a3:e2:69:a5:2d:7a:c3:f0:42:4e:
         a4:82:2e:a6:7c:21:cc:0d:ee:ef:17:48:37:9d:3b:00:cb:bb:
         c4:96:b8:2a:1c:30:9e:36:5c:b8:41:e3:07:aa:79:c3:a9:83:
         7b:08:ac:9c:7a:d9:bd:5e:6f:7e:9b:dd:d5:61:21:2b:91:04:
         86:c6:f2:37:60:31:27:b6:e2:ad:a6:c4:16:74:da:71:fb:eb:
         5c:fb:a7:c4:72:4c:61:9b:13:b8:5c:ed:36:ab:10:59:96:6d:
         00:2e:ba:ba:b2:1e:82:4a:ca:bc:dd:82:ed:1c:5c:0e:fc:ea:
         e9:2a:75:14:17:ca:23:34:80:36:a4:b5:c6:3a:2e:07:88:b2:
         84:bc:1e:6e:ab:71:16:db:6f:f6:49:b7:64:84:1b:75:3d:7b:
         46:17:c0:14:c7:3e:0c:90:ad:37:b7:ba:6a:f1:21:b9:7f:48:
         b0:3c:f3:eb:03:d5:b6:01:71:de:d0:56:57:5f:a5:fd:30:3f:
         fe:57:fd:c1:36:c9:ef:90:28:47:20:8a:ef:2c:59:0e:1c:af:
         7a:82:e4:db:2a:a5:6d:71:a7:55:c3:e4:30:36:0c:be:f3:61:
         20:91:76:a1:0b:2a:82:16:f8:46:e0:93:b6:34:ff:88:a5:7e:
         40:27:1b:08:40:c3:81:4d:50:81:d3:ff:e3:fc:f8:01:39:c5:
         45:6b:3a:66:a8:36:4c:b0:70:8a:94:b3:7e:38:a8:9a:b2:7c:
         1d:d3:a0:e9:9b:51:0a:39:dd:7f:d7:25:0c:ac:03:e7:0a:8e:
         2c:1b:7f:64:3a:f3:89:a6:d7:e9:01:61:fe:04:8c:e4:08:2e:
         51:69:7a:e8:60:12:d2:1f:b9:64:c5:45:e4:eb:3f:9f:59:65:
         8d:6f:b5:b6:99:f1:75:e0:cc:8c:e2:f1:63:8a:f9:f6:5e:cc:
         14:84:56:e8:4d:5f:78:66:42:d9:bd:67:b0:bf:60:b4:10:6b:
         73:35:3a:44:37:a9:99:97:43:02:d0:d8:1f:11:fe:0a:de:78:
         74:47:22:d7:0f:2b:0b:c2:81:ae:87:93:4d:54:79:b6:f0:f9:
         c6:45:75:bc:9b:7b:3c:ee:c0:e5:9c:d6:43:05:0b:96:bf:42:
         36:6d:49:a9:ff:26:93:06:00:38:29:20:00:66:bd:6f:23:05:
         12:8e:2b:c5:88:83:ea:3d:25:67:a6:a2:3a:1f:9f:9c:d9:03:
         10:0c:a6:fa:88:1a:97:73
-----BEGIN CERTIFICATE-----
MIIEnDCCAoSgAwIBAgICEAQwDQYJKoZIhvcNAQELBQAwgZIxCzAJBgNVBAYTAlNX
MRIwEAYDVQQIDAlTdG9ja2hvbG0xDjAMBgNVBAcMBWtpc3RhMQwwCgYDVQQKDANr
dGgxDDAKBgNVBAsMA2ljdDEnMCUGA1UEAwweVFAgQ0EgeWZhbkBrdGguc2UgbGlk
YWxAa3RoLnNlMRowGAYJKoZIhvcNAQkBFgt5ZmFuQGt0aC5zZTAeFw0xODAxMDYx
NTQ0MjNaFw0xOTAxMDYxNTQ0MjNaMIGGMQswCQYDVQQGEwJTVzESMBAGA1UECAwJ
U3RvY2tob2xtMQwwCgYDVQQKDANrdGgxDDAKBgNVBAsMA2ljdDErMCkGA1UEAwwi
VFAgQ2xpZW50IHlmYW5Aa3RoLnNlIGxpZGFsQGt0aC5zZTEaMBgGCSqGSIb3DQEJ
ARYLeWZhbkBrdGguc2UwgZ8wDQYJKoZIhvcNAQEBBQADgY0AMIGJAoGBALsgwhH7
9NT074DTwuAIlmG/ZS7sEbJEulCBCIYzxi66xHLeSJkJPf7PdXQz9cpeeOvZI1aI
QCBmgn6yN1yEmR92HNZ+BMVzg7bfene1hv8cnZ77chek/neQk+Q7T5wj9Vie0kD9
UJQB9W+DvVsuxFMCfw90FABp0bc07/ECpa3/AgMBAAGjgYkwgYYwCQYDVR0TBAIw
ADALBgNVHQ8EBAMCBeAwLAYJYIZIAYb4QgENBB8WHU9wZW5TU0wgR2VuZXJhdGVk
IENlcnRpZmljYXRlMB0GA1UdDgQWBBSOiRyVHnJS42BNt+51GVICG2M6DTAfBgNV
HSMEGDAWgBRp4Hjd3OHrMznjrNCZc76qm5WjATANBgkqhkiG9w0BAQsFAAOCAgEA
jzJtY6cJntXFjSlgxlrMIWuJQGN0I5ykAVAjNz24NcYeQBX94nGjPgXzh/+j4mml
LXrD8EJOpIIupnwhzA3u7xdIN507AMu7xJa4KhwwnjZcuEHjB6p5w6mDewisnHrZ
vV5vfpvd1WEhK5EEhsbyN2AxJ7birabEFnTacfvrXPunxHJMYZsTuFztNqsQWZZt
AC66urIegkrKvN2C7RxcDvzq6Sp1FBfKIzSANqS1xjouB4iyhLwebqtxFttv9km3
ZIQbdT17RhfAFMc+DJCtN7e6avEhuX9IsDzz6wPVtgFx3tBWV1+l/TA//lf9wTbJ
75AoRyCK7yxZDhyveoLk2yqlbXGnVcPkMDYMvvNhIJF2oQsqghb4RuCTtjT/iKV+
QCcbCEDDgU1QgdP/4/z4ATnFRWs6Zqg2TLBwipSzfjiomrJ8HdOg6ZtRCjndf9cl
DKwD5wqOLBt/ZDrziabX6QFh/gSM5AguUWl66GAS0h+5ZMVF5Os/n1lljW+1tpnx
deDMjOLxY4r59l7MFIRW6E1feGZC2b1nsL9gtBBrczU6RDepmZdDAtDYHxH+Ct54
dEci1w8rC8KBroeTTVR5tvD5xkV1vJt7PO7A5ZzWQwULlr9CNm1Jqf8mkwYAOCkg
AGa9byMFEo4rxYiD6j0lZ6aiOh+fnNkDEAym+ogal3M=
-----END CERTIFICATE-----
