Certificate:
    Data:
        Version: 3 (0x2)
        Serial Number: 1 (0x1)
    Signature Algorithm: sha256WithRSAEncryption
        Issuer: C=AU, ST=Stockholm, L=Stockholm, O=KTH, OU=ICT, CN=TP CA lidal@kth.se yfan@kth.se/emailAddress=yfan@kth.se
        Validity
            Not Before: Dec  6 15:31:00 2017 GMT
            Not After : Dec  6 15:31:00 2018 GMT
        Subject: C=AU, ST=Stockholm, O=KTH, OU=ICT, CN=TP Server lidal@kth.se yfan@kth.se/emailAddress=yfan@kth.se
        Subject Public Key Info:
            Public Key Algorithm: rsaEncryption
                Public-Key: (2048 bit)
                Modulus:
                    00:cf:be:02:ae:c9:b4:f0:5e:1f:93:ac:9a:c9:5d:
                    1f:38:1d:fe:1e:41:86:87:48:93:2d:62:73:91:c2:
                    70:a9:42:7f:17:c4:6b:c1:34:9d:90:26:cf:28:54:
                    71:fc:c3:35:cd:75:e1:4a:45:86:04:04:84:cd:9d:
                    09:79:e4:1a:29:22:3e:51:65:9a:04:db:95:92:9d:
                    91:ce:ac:aa:7e:59:d3:53:b7:46:2f:e7:52:0d:08:
                    95:38:b7:b0:62:72:63:4e:21:fe:2c:ce:d0:fd:c7:
                    82:16:c8:35:ad:54:44:17:b2:03:39:3d:54:89:ab:
                    7d:1a:20:3e:07:1d:ab:95:ae:12:a9:37:57:b1:5b:
                    a7:b5:0a:ad:03:54:90:ab:75:41:a9:99:1e:aa:64:
                    80:11:7f:6b:40:31:26:a0:52:e3:cf:62:05:48:ca:
                    0c:5e:7e:36:81:25:79:47:86:7f:80:90:84:7f:56:
                    8b:f8:c3:86:f3:dc:82:85:cd:b0:35:88:00:b5:93:
                    43:4c:69:d6:20:f5:51:a3:8b:b0:89:5f:55:dd:35:
                    f7:3c:2e:44:df:e8:21:cc:48:76:77:d6:f1:51:96:
                    cd:e7:48:7f:17:46:e5:99:71:24:e1:0e:35:f6:4e:
                    69:2b:6f:5d:3f:1b:56:41:7a:90:ae:ed:9e:19:5b:
                    0f:bb
                Exponent: 65537 (0x10001)
        X509v3 extensions:
            X509v3 Basic Constraints: 
                CA:FALSE
            X509v3 Key Usage: 
                Digital Signature, Non Repudiation, Key Encipherment
            Netscape Comment: 
                OpenSSL Generated Certificate
            X509v3 Subject Key Identifier: 
                1B:87:62:54:81:CD:0D:24:3E:FC:5D:31:A2:A3:AC:CA:4D:40:12:2D
            X509v3 Authority Key Identifier: 
                DirName:/C=AU/ST=Stockholm/L=Stockholm/O=KTH/OU=ICT/CN=TP CA lidal@kth.se yfan@kth.se/emailAddress=yfan@kth.se
                serial:97:75:71:51:09:E3:31:CA

    Signature Algorithm: sha256WithRSAEncryption
         aa:f4:94:d8:5a:ff:e7:82:cc:3d:39:fd:a2:cb:c3:a6:a6:f6:
         49:63:f7:11:a2:74:4b:c7:5d:0b:31:2f:4d:d4:24:70:2c:a5:
         63:61:93:54:68:80:96:5e:30:02:6b:99:04:fb:d1:b5:0b:31:
         4b:aa:9f:99:45:56:20:6b:54:c0:ba:05:de:60:e2:15:8f:f5:
         aa:83:fa:30:15:9a:18:0c:0d:b5:9d:64:e8:4d:c5:e2:d3:24:
         13:2b:b5:04:96:86:d6:18:54:75:d4:ae:a5:ac:6b:65:8a:83:
         81:68:f7:97:b6:3b:78:29:63:08:dd:69:9e:be:a1:d4:25:2b:
         87:12:88:31:5e:40:40:82:70:c9:b4:d4:73:5e:b7:04:0b:14:
         d9:6f:f3:2b:cf:27:6e:91:0b:7c:fb:6d:6f:ce:62:c5:76:de:
         2c:ec:60:96:a3:db:d0:cb:fd:56:2d:24:de:2e:38:f2:e6:26:
         12:d5:78:87:e1:72:d4:2b:44:39:b0:0b:29:e1:97:65:6c:0b:
         55:4e:80:cd:bd:11:70:e8:37:b6:09:fc:dc:28:01:85:b0:b1:
         82:bc:d2:57:ee:27:98:db:40:fb:3e:b3:62:c2:ec:9a:2f:52:
         22:94:41:a2:98:a1:15:f7:65:f9:97:d6:e0:60:70:5a:b0:ab:
         65:0b:01:3b
-----BEGIN CERTIFICATE-----
MIIEvDCCA6SgAwIBAgIBATANBgkqhkiG9w0BAQsFADCBljELMAkGA1UEBhMCQVUx
EjAQBgNVBAgMCVN0b2NraG9sbTESMBAGA1UEBwwJU3RvY2tob2xtMQwwCgYDVQQK
DANLVEgxDDAKBgNVBAsMA0lDVDEnMCUGA1UEAwweVFAgQ0EgbGlkYWxAa3RoLnNl
IHlmYW5Aa3RoLnNlMRowGAYJKoZIhvcNAQkBFgt5ZmFuQGt0aC5zZTAeFw0xNzEy
MDYxNTMxMDBaFw0xODEyMDYxNTMxMDBaMIGGMQswCQYDVQQGEwJBVTESMBAGA1UE
CAwJU3RvY2tob2xtMQwwCgYDVQQKDANLVEgxDDAKBgNVBAsMA0lDVDErMCkGA1UE
AwwiVFAgU2VydmVyIGxpZGFsQGt0aC5zZSB5ZmFuQGt0aC5zZTEaMBgGCSqGSIb3
DQEJARYLeWZhbkBrdGguc2UwggEiMA0GCSqGSIb3DQEBAQUAA4IBDwAwggEKAoIB
AQDPvgKuybTwXh+TrJrJXR84Hf4eQYaHSJMtYnORwnCpQn8XxGvBNJ2QJs8oVHH8
wzXNdeFKRYYEBITNnQl55BopIj5RZZoE25WSnZHOrKp+WdNTt0Yv51INCJU4t7Bi
cmNOIf4sztD9x4IWyDWtVEQXsgM5PVSJq30aID4HHauVrhKpN1exW6e1Cq0DVJCr
dUGpmR6qZIARf2tAMSagUuPPYgVIygxefjaBJXlHhn+AkIR/Vov4w4bz3IKFzbA1
iAC1k0NMadYg9VGji7CJX1XdNfc8LkTf6CHMSHZ31vFRls3nSH8XRuWZcSThDjX2
Tmkrb10/G1ZBepCu7Z4ZWw+7AgMBAAGjggEhMIIBHTAJBgNVHRMEAjAAMAsGA1Ud
DwQEAwIF4DAsBglghkgBhvhCAQ0EHxYdT3BlblNTTCBHZW5lcmF0ZWQgQ2VydGlm
aWNhdGUwHQYDVR0OBBYEFBuHYlSBzQ0kPvxdMaKjrMpNQBItMIG1BgNVHSMEga0w
gaqhgZykgZkwgZYxCzAJBgNVBAYTAkFVMRIwEAYDVQQIDAlTdG9ja2hvbG0xEjAQ
BgNVBAcMCVN0b2NraG9sbTEMMAoGA1UECgwDS1RIMQwwCgYDVQQLDANJQ1QxJzAl
BgNVBAMMHlRQIENBIGxpZGFsQGt0aC5zZSB5ZmFuQGt0aC5zZTEaMBgGCSqGSIb3
DQEJARYLeWZhbkBrdGguc2WCCQCXdXFRCeMxyjANBgkqhkiG9w0BAQsFAAOCAQEA
qvSU2Fr/54LMPTn9osvDpqb2SWP3EaJ0S8ddCzEvTdQkcCylY2GTVGiAll4wAmuZ
BPvRtQsxS6qfmUVWIGtUwLoF3mDiFY/1qoP6MBWaGAwNtZ1k6E3F4tMkEyu1BJaG
1hhUddSupaxrZYqDgWj3l7Y7eCljCN1pnr6h1CUrhxKIMV5AQIJwybTUc163BAsU
2W/zK88nbpELfPttb85ixXbeLOxglqPb0Mv9Vi0k3i448uYmEtV4h+Fy1CtEObAL
KeGXZWwLVU6Azb0RcOg3tgn83CgBhbCxgrzSV+4nmNtA+z6zYsLsmi9SIpRBopih
Ffdl+ZfW4GBwWrCrZQsBOw==
-----END CERTIFICATE-----
-----BEGIN RSA PRIVATE KEY-----
Proc-Type: 4,ENCRYPTED
DEK-Info: DES-EDE3-CBC,5333B7937045CE7F

RDEXzQ2ZzK0rTx1+Zd0lheR1tPGtsF4H5uMgQIIQTcAd7KEdbALbagq8RZu3IpTP
UZDThJCz1c1COeB+f9yuP9TI9QBiSKGCMD1Z+aQFqKw3hNqUlFq2dLBDhTCvSdWP
dTM8Ks0zGdkNeQoa8gpFjMr2zD8/IW/eazGRZ8eDEXE5cMW+Dyi8qCjUN+oQYmh2
2la/18lF/6RcTxwOSxE38+1Lx+PQVk0qP5nZc9Y4LDg8O5ofZiwdwiZvt4gucFBx
Kx/OSb864/EDzAfT3yHOMgzsSacUJ5OgC8vK9ABFEWje03VyWmD50wT++WwU/KuZ
Sy8UPJiRqWldp7a/NIvoZZdnFQiAQ4zSfebb2oSbBgZBvGw1esRFNICuUB2/on/w
7ZE+NgHS2boyX4lru+zm4l/Gl98Y2N9v2hWtYxXw8VErzfZydeFQ14IeSSbQ/hRu
cuIS3alCZXJIpgfyi81ORvBIX5xlLkjcDrROt3AlNNNkacgPG75ucTX4qSr9gTRn
w/Z01BpySSim4sLAn1MJEPbRpn9fJg5vhvRszmpRaJueatbamExPDptsxDDOTI6W
hZMfxJhRmUK5SPQKQOzrE1HPODcJgRFNCuKZVlZWe3WMHN/sxWFEhtrkkvO+LxA8
GcljxvO8y7TIEWTFdg2gLC+b1/GE6saWyxyKOEkt7B4YTQB4u61XTS0KaiSouiJ7
fac0+Bkaxi3ROADXF03uzaYnd61m6Tynt6q5vfnYIvAS2rNPvp+sEG8IVb1+cR3C
PWkfAC9QvPnOTqiISOhjZSv3svZ98vgTqz/XPX4DutZA6bQHqKxypcU0tfrD4BDi
w7M5qj8HLZv4Q/Ad3BOVWmEG4I5+zyjYI68x1tKwvCSt0HuwJtoP6BhFQsnzc398
I3zhQ1fCEUkidQ2fYqUux6R/s4wrzr8O48p+Tt7gM1tnTnXr8l8uA2DLZSkDU63b
4coOdZR2H8Y5ddgxqGvs2dPlxihJHWcIH2hmEFoE0SFagauasee3AmOPGPjhOSHU
buMVM42mb0zKCs90In2WUA2ddjgnBB2IC3XTSulnU3pEAQDhinAbhWNkZr28htWI
bbX3Lzi6z9HKY8FGMYxWMd3fgLpiU8SPP0pMKLMGYzWjJ4ZZN0HmZxuGCQxXKuDM
4M6w+o+BIpCODvrM3S+TN9hBw4NvJAR2Y83D9sBTQwjQlIiQ/seb21iv8V08/xaI
KXmbnunBaVhmY2JVraO1s7TyqeVEduy2ArheT3kq9UGBaXgl7iI4uiXZBUoH4N9I
9ReGFDCsVCXNbxZVeviQmxUlL6ZmlN/nL4mKzgWBESe1/4U/wk2joKJJ+H8jLqB9
/JnLITU+nbcEAjyziS/Y1Tme46221SXamBHRj9RFXGnA+BolaYp36zQrndJ/XUPA
Grt03G2SRG0mQ5GKWCCYJQMCXRJTA5tTeTiuzT+OIZ8eUtTr9Ct8+pcB+iUqhXXT
zunyvWVTM5Q6jgj4VDfmugBD6CO8mwCCxQFnyT2cNbh9HQvSZ2BcEATaATHVuJAi
heU56pP1/+nWkCasElMyJ+iW81cmuT/AlEvE5K4KuSt1hEJAFEzDaQ==
-----END RSA PRIVATE KEY-----
