Certificate:
    Data:
        Version: 3 (0x2)
        Serial Number: 4096 (0x1000)
    Signature Algorithm: sha256WithRSAEncryption
        Issuer: C=SW, ST=Stockholm, L=kista, O=kth, OU=ict, CN=TP CA yfan@kth.se lidal@kth.se/emailAddress=yfan@kth.se
        Validity
            Not Before: Jan  6 15:19:16 2018 GMT
            Not After : Jan  6 15:19:16 2019 GMT
        Subject: C=SW, ST=Stockholm, O=kth, OU=ict, CN=TP Server yfan@kth.se lidal@kth.se/emailAddress=yfan@kth.se
        Subject Public Key Info:
            Public Key Algorithm: rsaEncryption
                Public-Key: (1024 bit)
                Modulus:
                    00:b4:80:80:ee:ea:02:be:5c:a5:ed:17:84:ee:03:
                    eb:ac:51:ce:15:64:82:af:b9:41:81:d7:14:d3:db:
                    33:1c:25:6a:4e:ff:a6:eb:36:15:b2:73:45:70:d1:
                    22:84:73:c4:e3:16:91:79:52:f1:2c:42:ad:27:e5:
                    04:99:8a:38:f3:7c:95:a1:d2:bc:bd:c1:8e:01:fa:
                    0e:0f:f3:6f:3d:1e:b1:53:d8:c0:55:56:f0:c4:4b:
                    5e:69:74:f9:5f:49:2d:d3:df:30:83:15:02:9f:9d:
                    9f:29:d4:5a:80:19:84:ae:77:b4:70:2c:96:33:32:
                    39:eb:31:e7:0e:1e:aa:08:57
                Exponent: 65537 (0x10001)
        X509v3 extensions:
            X509v3 Basic Constraints: 
                CA:FALSE
            X509v3 Key Usage: 
                Digital Signature, Non Repudiation, Key Encipherment
            Netscape Comment: 
                OpenSSL Generated Certificate
            X509v3 Subject Key Identifier: 
                16:DD:89:1B:D2:14:C3:0C:99:AE:CB:8C:64:05:43:FE:D8:29:CF:E8
            X509v3 Authority Key Identifier: 
                keyid:69:E0:78:DD:DC:E1:EB:33:39:E3:AC:D0:99:73:BE:AA:9B:95:A3:01

    Signature Algorithm: sha256WithRSAEncryption
         9d:40:5c:95:75:11:38:20:71:bb:d6:df:74:6b:b7:6f:61:6c:
         e2:da:5a:b7:5a:0b:3e:24:00:c7:56:a2:a7:b4:2f:c2:38:1f:
         62:b8:7b:a9:26:cd:53:43:10:9b:38:b2:33:ea:00:99:e2:d9:
         e7:0f:7b:17:a0:f1:2a:5f:57:4a:5a:97:7a:13:e7:7b:8e:b1:
         c3:2d:8e:cc:51:1e:18:27:82:6a:d2:9b:83:cb:e3:8b:5b:1e:
         46:15:6c:69:4e:45:19:c3:fc:0d:ba:b6:97:a0:82:d1:79:22:
         10:18:9c:be:65:48:7a:7f:65:3b:18:30:36:4e:c2:75:54:50:
         22:52:54:30:f4:69:f6:cd:82:95:84:95:5b:c3:2b:25:c0:f2:
         7e:f4:f4:92:2b:7a:67:cf:ec:4e:15:78:80:fc:3a:d9:bd:6a:
         c3:da:ac:cb:d4:2a:9c:fe:e9:b4:34:0c:b9:42:06:59:fa:b0:
         08:45:e1:a7:2d:04:03:ce:d9:ce:1d:2f:48:69:68:0c:d9:3a:
         4e:2f:57:55:c9:94:1d:9e:6f:cf:5d:ad:f1:e0:f0:4e:23:95:
         26:d3:5e:ea:26:6f:9c:d8:9c:94:d7:2f:eb:18:19:9b:10:62:
         5e:35:f2:3d:fb:d6:ed:61:33:84:0b:82:07:d7:e5:4f:10:bc:
         59:19:02:f2:94:ee:fb:e9:83:11:0c:ad:59:4f:63:fd:c0:60:
         6c:75:0b:a4:fd:19:b6:a1:4e:62:08:ad:73:c8:11:97:94:5c:
         8a:3f:f4:93:90:94:f1:18:d4:ec:cb:88:c0:a8:57:20:88:e3:
         b4:74:70:bc:38:0b:cd:bd:4e:65:9c:d8:bf:18:e8:97:fe:be:
         70:da:03:68:01:d9:1c:30:04:ea:c6:fb:cc:42:16:99:43:64:
         90:37:bd:f7:7a:f6:cc:af:a9:a9:47:2e:9f:dc:ad:7c:5e:23:
         4d:57:a9:c1:af:67:24:0c:80:de:79:fe:71:17:fe:74:2b:c3:
         c9:93:65:d5:23:10:ed:b6:09:5e:1c:df:f9:40:cb:ca:c6:ec:
         37:2d:89:14:e2:f2:e6:9a:8a:bb:b9:2b:e6:98:ef:af:fe:e8:
         95:28:21:5f:20:04:27:14:60:69:43:cd:da:99:ff:e1:6d:22:
         33:31:ad:ad:36:9e:26:18:a4:64:cc:78:9d:ae:a2:8f:02:e9:
         2a:a7:32:68:ae:ce:1c:f4:6f:5c:ed:13:f2:b6:21:10:dc:46:
         0a:87:15:ea:1c:da:60:3a:39:cc:3d:49:bf:9c:b0:0e:3e:27:
         e2:41:a4:87:90:57:ff:e6:59:6a:f0:aa:fd:6e:f8:d2:75:b2:
         61:f0:99:36:58:e2:ee:f7
-----BEGIN CERTIFICATE-----
MIIEnDCCAoSgAwIBAgICEAAwDQYJKoZIhvcNAQELBQAwgZIxCzAJBgNVBAYTAlNX
MRIwEAYDVQQIDAlTdG9ja2hvbG0xDjAMBgNVBAcMBWtpc3RhMQwwCgYDVQQKDANr
dGgxDDAKBgNVBAsMA2ljdDEnMCUGA1UEAwweVFAgQ0EgeWZhbkBrdGguc2UgbGlk
YWxAa3RoLnNlMRowGAYJKoZIhvcNAQkBFgt5ZmFuQGt0aC5zZTAeFw0xODAxMDYx
NTE5MTZaFw0xOTAxMDYxNTE5MTZaMIGGMQswCQYDVQQGEwJTVzESMBAGA1UECAwJ
U3RvY2tob2xtMQwwCgYDVQQKDANrdGgxDDAKBgNVBAsMA2ljdDErMCkGA1UEAwwi
VFAgU2VydmVyIHlmYW5Aa3RoLnNlIGxpZGFsQGt0aC5zZTEaMBgGCSqGSIb3DQEJ
ARYLeWZhbkBrdGguc2UwgZ8wDQYJKoZIhvcNAQEBBQADgY0AMIGJAoGBALSAgO7q
Ar5cpe0XhO4D66xRzhVkgq+5QYHXFNPbMxwlak7/pus2FbJzRXDRIoRzxOMWkXlS
8SxCrSflBJmKOPN8laHSvL3BjgH6Dg/zbz0esVPYwFVW8MRLXml0+V9JLdPfMIMV
Ap+dnynUWoAZhK53tHAsljMyOesx5w4eqghXAgMBAAGjgYkwgYYwCQYDVR0TBAIw
ADALBgNVHQ8EBAMCBeAwLAYJYIZIAYb4QgENBB8WHU9wZW5TU0wgR2VuZXJhdGVk
IENlcnRpZmljYXRlMB0GA1UdDgQWBBQW3Ykb0hTDDJmuy4xkBUP+2CnP6DAfBgNV
HSMEGDAWgBRp4Hjd3OHrMznjrNCZc76qm5WjATANBgkqhkiG9w0BAQsFAAOCAgEA
nUBclXUROCBxu9bfdGu3b2Fs4tpat1oLPiQAx1aip7QvwjgfYrh7qSbNU0MQmziy
M+oAmeLZ5w97F6DxKl9XSlqXehPne46xwy2OzFEeGCeCatKbg8vji1seRhVsaU5F
GcP8Dbq2l6CC0XkiEBicvmVIen9lOxgwNk7CdVRQIlJUMPRp9s2ClYSVW8MrJcDy
fvT0kit6Z8/sThV4gPw62b1qw9qsy9QqnP7ptDQMuUIGWfqwCEXhpy0EA87Zzh0v
SGloDNk6Ti9XVcmUHZ5vz12t8eDwTiOVJtNe6iZvnNiclNcv6xgZmxBiXjXyPfvW
7WEzhAuCB9flTxC8WRkC8pTu++mDEQytWU9j/cBgbHULpP0ZtqFOYgitc8gRl5Rc
ij/0k5CU8RjU7MuIwKhXIIjjtHRwvDgLzb1OZZzYvxjol/6+cNoDaAHZHDAE6sb7
zEIWmUNkkDe993r2zK+pqUcun9ytfF4jTVepwa9nJAyA3nn+cRf+dCvDyZNl1SMQ
7bYJXhzf+UDLysbsNy2JFOLy5pqKu7kr5pjvr/7olSghXyAEJxRgaUPN2pn/4W0i
MzGtrTaeJhikZMx4na6ijwLpKqcyaK7OHPRvXO0T8rYhENxGCocV6hzaYDo5zD1J
v5ywDj4n4kGkh5BX/+ZZavCq/W740nWyYfCZNlji7vc=
-----END CERTIFICATE-----
