Certificate:
    Data:
        Version: 3 (0x2)
        Serial Number: 1 (0x1)
    Signature Algorithm: sha256WithRSAEncryption
        Issuer: C=SW, ST=Stockholm, L=kista, O=KTH, OU=ICT, CN=TP CA yfan@kth.se lidal@kth.se/emailAddress=yfan@kth.se
        Validity
            Not Before: Dec 19 09:31:41 2017 GMT
            Not After : Dec 19 09:31:41 2018 GMT
        Subject: C=SW, ST=Stockholm, O=KTH, OU=ICT, CN=TP Server yfan@kth.se lidal@kth.se/emailAddress=yfan@kth.se
        Subject Public Key Info:
            Public Key Algorithm: rsaEncryption
                Public-Key: (1024 bit)
                Modulus:
                    00:cb:a8:d6:08:74:21:3e:9d:15:bf:13:e9:9d:a2:
                    7f:88:a5:2f:fa:b1:65:80:d1:36:db:1e:0e:97:04:
                    f5:e3:33:35:06:a2:86:4b:be:6d:e4:e7:3d:f0:9f:
                    9f:3c:d7:c6:9f:0a:dc:fc:8f:ab:c3:32:4a:e4:e2:
                    e0:22:bb:5a:9e:e8:99:42:b3:65:99:9f:af:fb:c7:
                    92:33:db:d5:d7:5e:95:d3:94:17:32:0f:24:94:a0:
                    79:6b:72:85:fd:11:57:23:f6:18:f9:8c:6d:fd:00:
                    13:13:c6:34:3d:ea:c8:e0:14:83:03:bc:cb:b4:81:
                    55:f8:93:4d:1c:86:97:1f:e9
                Exponent: 65537 (0x10001)
        X509v3 extensions:
            X509v3 Basic Constraints: 
                CA:FALSE
            X509v3 Key Usage: 
                Digital Signature, Non Repudiation, Key Encipherment
            Netscape Comment: 
                OpenSSL Generated Certificate
            X509v3 Subject Key Identifier: 
                0F:0C:59:F8:59:43:2A:E9:AA:0C:92:E8:B9:D3:DA:C8:5A:B7:22:4B
            X509v3 Authority Key Identifier: 
                DirName:/C=SW/ST=Stockholm/L=kista/O=KTH/OU=ICT/CN=TP CA yfan@kth.se lidal@kth.se/emailAddress=yfan@kth.se
                serial:A1:2F:89:52:63:1D:17:93

    Signature Algorithm: sha256WithRSAEncryption
         0e:33:09:5c:ee:f4:7f:3a:e2:cc:26:5d:9d:89:ca:90:bc:22:
         e2:0a:c5:8f:00:a7:93:94:ec:c3:4a:b5:db:88:df:8d:fc:78:
         90:1f:b8:e1:0b:23:c2:ae:e6:17:b0:15:a7:52:44:93:ec:22:
         4b:a3:f0:02:58:bd:1c:48:13:e4:5d:46:49:63:a8:c4:33:6f:
         8d:ed:4b:36:fc:1f:6a:40:2e:19:2a:98:7d:72:93:db:63:ee:
         56:3a:9c:f0:1b:4d:69:d4:b4:65:15:31:34:2b:85:01:2a:d0:
         ce:bd:bb:06:31:f0:d7:e4:aa:e5:15:b9:b8:c2:59:7b:9b:74:
         12:29:6f:6b:c8:d8:08:93:3f:95:29:58:70:3e:0a:85:a3:75:
         d5:10:b1:cd:a9:f6:fa:9b:70:b3:70:46:a4:c6:fc:53:fb:04:
         1c:90:ae:b4:b8:00:76:d9:eb:1c:db:bf:94:d3:ea:c0:a2:8a:
         a4:83:9b:ba:b5:fb:d2:96:98:89:b4:a1:77:bd:42:bc:8b:18:
         54:3b:c4:7e:9d:4b:b5:9f:84:6b:c2:8e:9a:97:42:16:a0:6a:
         6c:64:08:db:e1:0d:4e:50:88:bd:56:e3:a7:7c:17:2e:20:5e:
         5c:9a:1e:01:e2:83:42:b7:8f:62:c3:7a:e0:af:21:b1:c4:e2:
         da:e0:03:c8
-----BEGIN CERTIFICATE-----
MIIEMDCCAxigAwIBAgIBATANBgkqhkiG9w0BAQsFADCBkjELMAkGA1UEBhMCU1cx
EjAQBgNVBAgMCVN0b2NraG9sbTEOMAwGA1UEBwwFa2lzdGExDDAKBgNVBAoMA0tU
SDEMMAoGA1UECwwDSUNUMScwJQYDVQQDDB5UUCBDQSB5ZmFuQGt0aC5zZSBsaWRh
bEBrdGguc2UxGjAYBgkqhkiG9w0BCQEWC3lmYW5Aa3RoLnNlMB4XDTE3MTIxOTA5
MzE0MVoXDTE4MTIxOTA5MzE0MVowgYYxCzAJBgNVBAYTAlNXMRIwEAYDVQQIDAlT
dG9ja2hvbG0xDDAKBgNVBAoMA0tUSDEMMAoGA1UECwwDSUNUMSswKQYDVQQDDCJU
UCBTZXJ2ZXIgeWZhbkBrdGguc2UgbGlkYWxAa3RoLnNlMRowGAYJKoZIhvcNAQkB
Fgt5ZmFuQGt0aC5zZTCBnzANBgkqhkiG9w0BAQEFAAOBjQAwgYkCgYEAy6jWCHQh
Pp0VvxPpnaJ/iKUv+rFlgNE22x4OlwT14zM1BqKGS75t5Oc98J+fPNfGnwrc/I+r
wzJK5OLgIrtanuiZQrNlmZ+v+8eSM9vV116V05QXMg8klKB5a3KF/RFXI/YY+Yxt
/QATE8Y0PerI4BSDA7zLtIFV+JNNHIaXH+kCAwEAAaOCAR0wggEZMAkGA1UdEwQC
MAAwCwYDVR0PBAQDAgXgMCwGCWCGSAGG+EIBDQQfFh1PcGVuU1NMIEdlbmVyYXRl
ZCBDZXJ0aWZpY2F0ZTAdBgNVHQ4EFgQUDwxZ+FlDKumqDJLoudPayFq3IkswgbEG
A1UdIwSBqTCBpqGBmKSBlTCBkjELMAkGA1UEBhMCU1cxEjAQBgNVBAgMCVN0b2Nr
aG9sbTEOMAwGA1UEBwwFa2lzdGExDDAKBgNVBAoMA0tUSDEMMAoGA1UECwwDSUNU
MScwJQYDVQQDDB5UUCBDQSB5ZmFuQGt0aC5zZSBsaWRhbEBrdGguc2UxGjAYBgkq
hkiG9w0BCQEWC3lmYW5Aa3RoLnNlggkAoS+JUmMdF5MwDQYJKoZIhvcNAQELBQAD
ggEBAA4zCVzu9H864swmXZ2JypC8IuIKxY8Ap5OU7MNKtduI3438eJAfuOELI8Ku
5hewFadSRJPsIkuj8AJYvRxIE+RdRkljqMQzb43tSzb8H2pALhkqmH1yk9tj7lY6
nPAbTWnUtGUVMTQrhQEq0M69uwYx8NfkquUVubjCWXubdBIpb2vI2AiTP5UpWHA+
CoWjddUQsc2p9vqbcLNwRqTG/FP7BByQrrS4AHbZ6xzbv5TT6sCiiqSDm7q1+9KW
mIm0oXe9QryLGFQ7xH6dS7WfhGvCjpqXQhagamxkCNvhDU5QiL1W46d8Fy4gXlya
HgHig0K3j2LDeuCvIbHE4trgA8g=
-----END CERTIFICATE-----
-----BEGIN RSA PRIVATE KEY-----
Proc-Type: 4,ENCRYPTED
DEK-Info: DES-EDE3-CBC,7A131AFC594C671E

5MtI8+qwC+K4Ov0aKNBCb8CwHbiQoz27IwNb/1b9LUfhkwnfKiFT19fc58ZMYT1l
XFvWPAWleQbaJvol7wvUZhHDt44hwD/2UiHvfKYwbafpgURBc0/RrWc8+vY3wCne
sLu+Ai6Yr/FgbWlfN7L/hPhN3d1Y+Lg3PDmHLv12C6xmVJ5AifhijEJNLtjva94l
gkLHQkFnVnlTukUkJbGfr18wuzQmZaTZKtfkj5o9y2dYDvJomsrfHxzAJeYRHkws
zjfpzTF5UlAwub+KKsYQWfKHqPmGRM9uMFTS4jNUYcB8btY8HNQsVksf3ro+kgZU
0R2It0eq2+wX8RzAYUfpdcZp7LWXfHsGP4I7LN9MJQquWi5Rh5in+4JZZtlw8enY
SI5YV61lM2i1JETquO7jWYy5XwFaovbsRqKHBlm9Wt+dLi28AW9+uo51HrHxB1IO
xR3+ZvDQZn+pJ6sNwwkZ/EE/l/8WYBL8Emucdx6nyo2DzIAKd8HRKs12FA77F6Gm
D97/Kt987OQKdzXbvVcJ9DyfOZMDlUutUigvybUL5NIUZQp7ml6K8AqI+VSmeuVS
U3M0z2uhwNpu/M30AwvApR1Z+a/cj+T9ynnwXmklmQ/GUVCGDCeQ9LXOPMMudw24
Qi++32L+OgLRDSMIplg2ggzlnE4jVzqORGkv8FJSE8KslkurEtKnsjaKXPfpzhSU
YLa1MZ0yzgluLomlkS6UPrYKMLRaeQTQ2Ly+ztlH8WYsyzgygXJH0zwSog8ByjZe
vKl/cgOh2kyI5WluQemATVk25eWc9Krswf4O0S3C0hcQYPS2Ny+tOQ==
-----END RSA PRIVATE KEY-----
