Certificate:
    Data:
        Version: 3 (0x2)
        Serial Number: 1 (0x1)
    Signature Algorithm: sha256WithRSAEncryption
        Issuer: C=AU, ST=Stockholm, L=Stockholm, O=KTH, OU=ICT, CN=TP CA lidal@kth.se yfan@kth.se/emailAddress=yfan@kth.se
        Validity
            Not Before: Dec  7 09:02:47 2017 GMT
            Not After : Dec  7 09:02:47 2018 GMT
        Subject: C=AU, ST=Stockholm, O=KTH, OU=ICT, CN=TP Client lidal@kth.se yfan@kth.se/emailAddress=yfan@kth.se
        Subject Public Key Info:
            Public Key Algorithm: rsaEncryption
                Public-Key: (1024 bit)
                Modulus:
                    00:ef:6d:4c:8c:d9:7e:58:8b:6d:3f:87:55:84:0e:
                    81:98:85:ca:ce:6f:8d:71:92:13:ce:23:06:e3:2c:
                    0d:34:92:81:18:9c:57:99:9f:bb:ae:84:75:2d:eb:
                    a6:b5:20:c6:f7:96:d0:f2:9f:18:bb:9e:92:d7:55:
                    85:33:da:bd:59:4d:cf:8d:06:a8:c3:1d:84:97:75:
                    19:64:64:a4:31:96:aa:f9:94:3c:a6:fb:63:ec:83:
                    98:9e:ef:88:a9:2c:6e:43:96:b9:9c:83:9e:83:4b:
                    07:fe:bd:26:bc:81:35:22:59:98:96:6a:0b:38:b4:
                    08:9f:c4:85:ae:4e:60:3c:99
                Exponent: 65537 (0x10001)
        X509v3 extensions:
            X509v3 Basic Constraints: 
                CA:FALSE
            X509v3 Key Usage: 
                Digital Signature, Non Repudiation, Key Encipherment
            Netscape Comment: 
                OpenSSL Generated Certificate
            X509v3 Subject Key Identifier: 
                6C:05:FB:DD:86:22:69:94:BA:9D:D8:BF:B5:2F:69:BA:CB:8C:F2:2E
            X509v3 Authority Key Identifier: 
                DirName:/C=AU/ST=Stockholm/L=Stockholm/O=KTH/OU=ICT/CN=TP CA lidal@kth.se yfan@kth.se/emailAddress=yfan@kth.se
                serial:E4:23:AA:46:B5:DA:64:A1

    Signature Algorithm: sha256WithRSAEncryption
         ae:3d:06:bc:49:51:c7:00:c2:d0:fd:e1:16:8b:7a:de:d3:bb:
         aa:32:fa:71:a7:c1:9e:4e:de:66:db:0d:34:98:7c:d5:39:41:
         9a:ef:01:4e:f2:20:49:41:ef:40:48:cb:52:8c:2f:ba:47:19:
         ec:b8:58:67:ec:da:aa:ff:23:9b:20:8b:ff:5f:ad:7b:ab:92:
         8d:63:ee:e6:e8:cd:c4:55:f8:30:91:24:4f:01:1c:57:22:77:
         51:23:45:ef:b4:74:d5:d4:71:56:66:b1:a2:e2:a2:35:db:23:
         c2:55:28:16:de:eb:54:07:5e:ac:4d:88:2f:d0:54:ce:1d:39:
         39:ca:b4:0a:33:32:3b:1e:38:bd:14:84:76:95:6d:44:21:65:
         b1:35:5e:79:d6:0d:ea:1e:43:ba:00:84:c2:38:50:df:40:5e:
         7e:5b:c9:a4:7a:db:35:6d:e3:c0:85:f3:04:5e:81:44:c4:51:
         d3:c9:19:ab:73:61:36:87:0e:5c:5b:67:69:5b:ed:80:ef:d3:
         1c:92:04:61:4e:8d:f6:f2:23:f7:e5:aa:1a:f5:a4:92:ae:1b:
         1c:0c:ca:11:ef:f2:c9:f9:96:c4:63:ad:d2:85:0f:50:dc:12:
         4e:83:af:6c:9e:95:bc:f8:cf:6f:b9:42:60:46:9d:64:cb:72:
         5a:44:2b:30
-----BEGIN CERTIFICATE-----
MIIEODCCAyCgAwIBAgIBATANBgkqhkiG9w0BAQsFADCBljELMAkGA1UEBhMCQVUx
EjAQBgNVBAgMCVN0b2NraG9sbTESMBAGA1UEBwwJU3RvY2tob2xtMQwwCgYDVQQK
DANLVEgxDDAKBgNVBAsMA0lDVDEnMCUGA1UEAwweVFAgQ0EgbGlkYWxAa3RoLnNl
IHlmYW5Aa3RoLnNlMRowGAYJKoZIhvcNAQkBFgt5ZmFuQGt0aC5zZTAeFw0xNzEy
MDcwOTAyNDdaFw0xODEyMDcwOTAyNDdaMIGGMQswCQYDVQQGEwJBVTESMBAGA1UE
CAwJU3RvY2tob2xtMQwwCgYDVQQKDANLVEgxDDAKBgNVBAsMA0lDVDErMCkGA1UE
AwwiVFAgQ2xpZW50IGxpZGFsQGt0aC5zZSB5ZmFuQGt0aC5zZTEaMBgGCSqGSIb3
DQEJARYLeWZhbkBrdGguc2UwgZ8wDQYJKoZIhvcNAQEBBQADgY0AMIGJAoGBAO9t
TIzZfliLbT+HVYQOgZiFys5vjXGSE84jBuMsDTSSgRicV5mfu66EdS3rprUgxveW
0PKfGLuektdVhTPavVlNz40GqMMdhJd1GWRkpDGWqvmUPKb7Y+yDmJ7viKksbkOW
uZyDnoNLB/69JryBNSJZmJZqCzi0CJ/Eha5OYDyZAgMBAAGjggEhMIIBHTAJBgNV
HRMEAjAAMAsGA1UdDwQEAwIF4DAsBglghkgBhvhCAQ0EHxYdT3BlblNTTCBHZW5l
cmF0ZWQgQ2VydGlmaWNhdGUwHQYDVR0OBBYEFGwF+92GImmUup3Yv7UvabrLjPIu
MIG1BgNVHSMEga0wgaqhgZykgZkwgZYxCzAJBgNVBAYTAkFVMRIwEAYDVQQIDAlT
dG9ja2hvbG0xEjAQBgNVBAcMCVN0b2NraG9sbTEMMAoGA1UECgwDS1RIMQwwCgYD
VQQLDANJQ1QxJzAlBgNVBAMMHlRQIENBIGxpZGFsQGt0aC5zZSB5ZmFuQGt0aC5z
ZTEaMBgGCSqGSIb3DQEJARYLeWZhbkBrdGguc2WCCQDkI6pGtdpkoTANBgkqhkiG
9w0BAQsFAAOCAQEArj0GvElRxwDC0P3hFot63tO7qjL6cafBnk7eZtsNNJh81TlB
mu8BTvIgSUHvQEjLUowvukcZ7LhYZ+zaqv8jmyCL/1+te6uSjWPu5ujNxFX4MJEk
TwEcVyJ3USNF77R01dRxVmaxouKiNdsjwlUoFt7rVAderE2IL9BUzh05Ocq0CjMy
Ox44vRSEdpVtRCFlsTVeedYN6h5DugCEwjhQ30BeflvJpHrbNW3jwIXzBF6BRMRR
08kZq3NhNocOXFtnaVvtgO/THJIEYU6N9vIj9+WqGvWkkq4bHAzKEe/yyfmWxGOt
0oUPUNwSToOvbJ6VvPjPb7lCYEadZMtyWkQrMA==
-----END CERTIFICATE-----
-----BEGIN RSA PRIVATE KEY-----
Proc-Type: 4,ENCRYPTED
DEK-Info: DES-EDE3-CBC,C186C75F1812DA81

G+B+8xg/37Twr5UShiHFK+UAJbVMGF5geB5t+/zJbPCLl6ai0+rabiaDfCRQjuLM
j1OSX5V/AE1jtEDddlR8yVWD34r3wbaT263yMNmyP3MlTlqPauj1RqHrB+fYmRQ1
kslGuKzDAkoP2EsHZwJlD2qe3H7EGQB1vCsx39DjopTKUD/hFVqxuBHVLb5iDKkX
WKTx2F9H39j1JT2Uhc/sa6zWO3l1uUe+oIhPVj9/qVe+XOxJ3WHtZnjIPlG4mYO0
7SsYPu1D0DzozgIzHY01Som+pqCKeOc2ELD19yX3odZqEqaVF0QzqdSX2pktR0ek
qa68JFcFpew5whTwGEiSYDrOrQdig7pdX13BU53GJ7PVWcrwa9Nt4m8JuvgFO0V2
iO6pO4refeNlqkt39w0eBdDHEhBOCJxD2wGzFVnjf0S8zap6nLBA7UwHuo0gjOeP
BLmD/O7xE3cJIdgDav2ICWSn1KoFZASVSDn9ln7OUvGWv4DvKuZxxdvF7pTeVsQ+
LF6ABYjCnaYwFshLrB+S5zONXDkzGWybpajbtXIMo710qTp3M03KMKFlbJZDeR9/
xyidueLWc6mcwZgn9yhWVEpTmV3YekFZAR3EhoClVTDfeaISFZ5o2NKnQ/Ch1w5C
XMs2rwnT8kkThYtBwrUUKSa26nP4uLCXyhu6esK6djT7O5aTkdEVt5JJssVoB/2R
HdUYTm4yKb7BE94LNCqxRMPaquVFt+z49w8O49LDROJIvla9CUT/fcHTp/rjT6n+
m+JtJoGrUPkf0Y36SI3e8XU8QULpjdeaWMdA0DTz1xKpcKNg4VXACQ==
-----END RSA PRIVATE KEY-----
